target datalayout = "e-m:e-p270:32:32-p271:32:32-p272:64:64-i64:64-i128:128-f80:128-n8:16:32:64-S128"
target triple = "x86_64-pc-linux-gnu"

%"class.google::protobuf::io::ArrayInputStream" = type { %"class.google::protobuf::io::ZeroCopyInputStream", ptr, i32, i32, i32, i32 }
%"class.google::protobuf::io::ZeroCopyInputStream" = type { ptr }
%"class.google::protobuf::internal::LogMessage" = type { i32, ptr, i32, %"class.std::__cxx11::basic_string" }
%"class.std::__cxx11::basic_string" = type { %"struct.std::__cxx11::basic_string<char>::_Alloc_hider", i64, %union.anon }
%"struct.std::__cxx11::basic_string<char>::_Alloc_hider" = type { ptr }
%union.anon = type { i64, [8 x i8] }
%"class.google::protobuf::internal::LogFinisher" = type { i8 }

@.str = private unnamed_addr constant [56 x i8] c"third_party/protobuf-lite/zero_copy_stream_impl_lite.cc\00", align 1
@.str.4 = private unnamed_addr constant [31 x i8] c"CHECK failed: (count) >= (0): \00", align 1

; Function Attrs: mustprogress uwtable
define noundef zeroext i1 @_ZN6google8protobuf2io16ArrayInputStream4SkipEi(ptr noundef nonnull align 8 dereferenceable(32) %0, i32 noundef %1) unnamed_addr #4 align 2 personality ptr @__gxx_personality_v0 {
  %3 = alloca i1, align 1
  %4 = alloca ptr, align 8
  %5 = alloca i32, align 4
  %6 = alloca %"class.google::protobuf::internal::LogMessage", align 8
  %7 = alloca i1, align 1
  %8 = alloca ptr, align 8
  %9 = alloca i32, align 4
  %10 = alloca %"class.google::protobuf::internal::LogFinisher", align 1
  store ptr %0, ptr %4, align 8
  store i32 %1, ptr %5, align 4
  %11 = load ptr, ptr %4, align 8
  %12 = load i32, ptr %5, align 4
  %13 = icmp sge i32 %12, 0
  store i1 false, ptr %7, align 1
  br i1 %13, label %14, label %15

14:                                               ; preds = %2
  br label %19

15:                                               ; preds = %2
  call void @_ZN6google8protobuf8internal10LogMessageC1ENS0_8LogLevelEPKci(ptr noundef nonnull align 8 dereferenceable(56) %6, i32 noundef 3, ptr noundef @.str, i32 noundef 89)
  store i1 true, ptr %7, align 1
  %16 = invoke noundef nonnull align 8 dereferenceable(56) ptr @_ZN6google8protobuf8internal10LogMessagelsEPKc(ptr noundef nonnull align 8 dereferenceable(56) %6, ptr noundef @.str.4)
          to label %17 unwind label %35

17:                                               ; preds = %15
  invoke void @_ZN6google8protobuf8internal11LogFinisheraSERNS1_10LogMessageE(ptr noundef nonnull align 1 dereferenceable(1) %10, ptr noundef nonnull align 8 dereferenceable(56) %16)
          to label %18 unwind label %35

18:                                               ; preds = %17
  br label %19

19:                                               ; preds = %18, %14
  %20 = load i1, ptr %7, align 1
  br i1 %20, label %21, label %22

21:                                               ; preds = %19
  call void @_ZN6google8protobuf8internal10LogMessageD1Ev(ptr noundef nonnull align 8 dereferenceable(56) %6) #3
  br label %22

22:                                               ; preds = %21, %19
  %23 = getelementptr inbounds %"class.google::protobuf::io::ArrayInputStream", ptr %11, i32 0, i32 5
  store i32 0, ptr %23, align 4
  %24 = load i32, ptr %5, align 4
  %25 = getelementptr inbounds %"class.google::protobuf::io::ArrayInputStream", ptr %11, i32 0, i32 2
  %26 = load i32, ptr %25, align 8
  %27 = getelementptr inbounds %"class.google::protobuf::io::ArrayInputStream", ptr %11, i32 0, i32 4
  %28 = load i32, ptr %27, align 8
  %29 = sub nsw i32 %26, %28
  %30 = icmp sgt i32 %24, %29
  br i1 %30, label %31, label %42

31:                                               ; preds = %22
  %32 = getelementptr inbounds %"class.google::protobuf::io::ArrayInputStream", ptr %11, i32 0, i32 2
  %33 = load i32, ptr %32, align 8
  %34 = getelementptr inbounds %"class.google::protobuf::io::ArrayInputStream", ptr %11, i32 0, i32 4
  store i32 %33, ptr %34, align 8
  store i1 false, ptr %3, align 1
  br label %47

35:                                               ; preds = %17, %15
  %36 = landingpad { ptr, i32 }
          cleanup
  %37 = extractvalue { ptr, i32 } %36, 0
  store ptr %37, ptr %8, align 8
  %38 = extractvalue { ptr, i32 } %36, 1
  store i32 %38, ptr %9, align 4
  %39 = load i1, ptr %7, align 1
  br i1 %39, label %40, label %41

40:                                               ; preds = %35
  call void @_ZN6google8protobuf8internal10LogMessageD1Ev(ptr noundef nonnull align 8 dereferenceable(56) %6) #3
  br label %41

41:                                               ; preds = %40, %35
  br label %49

42:                                               ; preds = %22
  %43 = load i32, ptr %5, align 4
  %44 = getelementptr inbounds %"class.google::protobuf::io::ArrayInputStream", ptr %11, i32 0, i32 4
  %45 = load i32, ptr %44, align 8
  %46 = add nsw i32 %45, %43
  store i32 %46, ptr %44, align 8
  store i1 true, ptr %3, align 1
  br label %47

47:                                               ; preds = %42, %31
  %48 = load i1, ptr %3, align 1
  ret i1 %48

49:                                               ; preds = %41
  %50 = load ptr, ptr %8, align 8
  %51 = load i32, ptr %9, align 4
  %52 = insertvalue { ptr, i32 } poison, ptr %50, 0
  %53 = insertvalue { ptr, i32 } %52, i32 %51, 1
  resume { ptr, i32 } %53
}