; Function Attrs: mustprogress uwtable
define noundef zeroext i1 @_ZN6google8protobuf2io16ArrayInputStream4SkipEi(ptr nocapture noundef nonnull align 8 dereferenceable(32) %0, i32 noundef %1) unnamed_addr #5 align 2 personality ptr @__gxx_personality_v0 {
  %3 = alloca %"class.google::protobuf::internal::LogMessage", align 8
  %4 = alloca %"class.google::protobuf::internal::LogFinisher", align 1
  %5 = icmp slt i32 %1, 0
  br i1 %5, label %6, label %.critedge

6:                                                ; preds = %2
  call void @_ZN6google8protobuf8internal10LogMessageC1ENS0_8LogLevelEPKci(ptr noundef nonnull align 8 dereferenceable(56) %3, i32 noundef 3, ptr noundef nonnull @.str, i32 noundef 89)
  %7 = invoke noundef nonnull align 8 dereferenceable(56) ptr @_ZN6google8protobuf8internal10LogMessagelsEPKc(ptr noundef nonnull align 8 dereferenceable(56) %3, ptr noundef nonnull @.str.4)
          to label %8 unwind label %18

8:                                                ; preds = %6
  invoke void @_ZN6google8protobuf8internal11LogFinisheraSERNS1_10LogMessageE(ptr noundef nonnull align 1 dereferenceable(1) %4, ptr noundef nonnull align 8 dereferenceable(56) %7)
          to label %9 unwind label %18

9:                                                ; preds = %8
  call void @_ZN6google8protobuf8internal10LogMessageD1Ev(ptr noundef nonnull align 8 dereferenceable(56) %3) #16
  br label %.critedge

.critedge:                                        ; preds = %2, %9
  %10 = getelementptr inbounds i8, ptr %0, i64 28
  store i32 0, ptr %10, align 4
  %11 = getelementptr inbounds i8, ptr %0, i64 16
  %12 = load i32, ptr %11, align 8
  %13 = getelementptr inbounds i8, ptr %0, i64 24
  %14 = load i32, ptr %13, align 8
  %15 = sub nsw i32 %12, %14
  %16 = icmp sge i32 %15, %1
  %17 = add nsw i32 %14, %1
  %storemerge = select i1 %16, i32 %17, i32 %12
  store i32 %storemerge, ptr %13, align 8
  ret i1 %16

18:                                               ; preds = %8, %6
  %19 = landingpad { ptr, i32 }
          cleanup
  call void @_ZN6google8protobuf8internal10LogMessageD1Ev(ptr noundef nonnull align 8 dereferenceable(56) %3) #16
  resume { ptr, i32 } %19
}